target datalayout = "e-m:e-p270:32:32-p271:32:32-p272:64:64-i64:64-i128:128-f80:128-n8:16:32:64-S128"
target triple = "x86_64-pc-linux-gnu"

%struct.SwsPass = type { ptr, ptr, i32, i32, i32, i32, i32, ptr, %struct.SwsImg, ptr, ptr, ptr }
%struct.SwsImg = type { i32, [4 x ptr], [4 x i32] }
%struct.SwsGraph = type { ptr, ptr, i32, i8, i8, ptr, i32, %struct.SwsContext, %struct.SwsFormat, %struct.SwsFormat, i32, %struct.anon }
%struct.SwsContext = type { ptr, ptr, i32, [2 x double], i32, i32, i32, i32, i32, i32, i32, i32, i32, i32, i32, i32, i32, i32, i32, i32, i32 }
%struct.SwsFormat = type { i32, i32, i32, i32, i32, i32, i32, ptr, %struct.SwsColor }
%struct.SwsColor = type { i32, i32, %struct.AVPrimaryCoefficients, %struct.AVRational, %struct.AVRational, %struct.AVRational, %struct.AVRational }
%struct.AVPrimaryCoefficients = type { %struct.AVCIExy, %struct.AVCIExy, %struct.AVCIExy }
%struct.AVCIExy = type { %struct.AVRational, %struct.AVRational }
%struct.AVRational = type { i32, i32 }
%struct.anon = type { ptr, %struct.SwsImg, %struct.SwsImg }

; Function Attrs: nounwind uwtable
define internal void @sws_graph_worker(ptr noundef %0, i32 noundef %1, i32 noundef %2, i32 noundef %3, i32 noundef %4) #0 {
  %6 = alloca ptr, align 8
  %7 = alloca i32, align 4
  %8 = alloca i32, align 4
  %9 = alloca i32, align 4
  %10 = alloca i32, align 4
  %11 = alloca ptr, align 8
  %12 = alloca ptr, align 8
  %13 = alloca ptr, align 8
  %14 = alloca ptr, align 8
  %15 = alloca i32, align 4
  %16 = alloca i32, align 4
  store ptr %0, ptr %6, align 8, !tbaa !13
  store i32 %1, ptr %7, align 4, !tbaa !9
  store i32 %2, ptr %8, align 4, !tbaa !9
  store i32 %3, ptr %9, align 4, !tbaa !9
  store i32 %4, ptr %10, align 4, !tbaa !9
  call void @llvm.lifetime.start.p0(i64 8, ptr %11) #11
  %17 = load ptr, ptr %6, align 8, !tbaa !13
  store ptr %17, ptr %11, align 8, !tbaa !4
  call void @llvm.lifetime.start.p0(i64 8, ptr %12) #11
  %18 = load ptr, ptr %11, align 8, !tbaa !4
  %19 = getelementptr inbounds nuw %struct.SwsGraph, ptr %18, i32 0, i32 11
  %20 = getelementptr inbounds nuw %struct.anon, ptr %19, i32 0, i32 0
  %21 = load ptr, ptr %20, align 8, !tbaa !58
  store ptr %21, ptr %12, align 8, !tbaa !11
  call void @llvm.lifetime.start.p0(i64 8, ptr %13) #11
  %22 = load ptr, ptr %12, align 8, !tbaa !11
  %23 = getelementptr inbounds nuw %struct.SwsPass, ptr %22, i32 0, i32 7
  %24 = load ptr, ptr %23, align 8, !tbaa !22
  %25 = icmp ne ptr %24, null
  br i1 %25, label %26, label %31

26:                                               ; preds = %5
  %27 = load ptr, ptr %12, align 8, !tbaa !11
  %28 = getelementptr inbounds nuw %struct.SwsPass, ptr %27, i32 0, i32 7
  %29 = load ptr, ptr %28, align 8, !tbaa !22
  %30 = getelementptr inbounds nuw %struct.SwsPass, ptr %29, i32 0, i32 8
  br label %35

31:                                               ; preds = %5
  %32 = load ptr, ptr %11, align 8, !tbaa !4
  %33 = getelementptr inbounds nuw %struct.SwsGraph, ptr %32, i32 0, i32 11
  %34 = getelementptr inbounds nuw %struct.anon, ptr %33, i32 0, i32 1
  br label %35

35:                                               ; preds = %31, %26
  %36 = phi ptr [ %30, %26 ], [ %34, %31 ]
  store ptr %36, ptr %13, align 8, !tbaa !59
  call void @llvm.lifetime.start.p0(i64 8, ptr %14) #11
  %37 = load ptr, ptr %12, align 8, !tbaa !11
  %38 = getelementptr inbounds nuw %struct.SwsPass, ptr %37, i32 0, i32 8
  %39 = getelementptr inbounds nuw %struct.SwsImg, ptr %38, i32 0, i32 0
  %40 = load i32, ptr %39, align 8, !tbaa !23
  %41 = icmp ne i32 %40, -1
  br i1 %41, label %42, label %45

42:                                               ; preds = %35
  %43 = load ptr, ptr %12, align 8, !tbaa !11
  %44 = getelementptr inbounds nuw %struct.SwsPass, ptr %43, i32 0, i32 8
  br label %49

45:                                               ; preds = %35
  %46 = load ptr, ptr %11, align 8, !tbaa !4
  %47 = getelementptr inbounds nuw %struct.SwsGraph, ptr %46, i32 0, i32 11
  %48 = getelementptr inbounds nuw %struct.anon, ptr %47, i32 0, i32 2
  br label %49

49:                                               ; preds = %45, %42
  %50 = phi ptr [ %44, %42 ], [ %48, %45 ]
  store ptr %50, ptr %14, align 8, !tbaa !59
  call void @llvm.lifetime.start.p0(i64 4, ptr %15) #11
  %51 = load i32, ptr %7, align 4, !tbaa !9
  %52 = load ptr, ptr %12, align 8, !tbaa !11
  %53 = getelementptr inbounds nuw %struct.SwsPass, ptr %52, i32 0, i32 5
  %54 = load i32, ptr %53, align 4, !tbaa !24
  %55 = mul nsw i32 %51, %54
  store i32 %55, ptr %15, align 4, !tbaa !9
  call void @llvm.lifetime.start.p0(i64 4, ptr %16) #11
  %56 = load ptr, ptr %12, align 8, !tbaa !11
  %57 = getelementptr inbounds nuw %struct.SwsPass, ptr %56, i32 0, i32 5
  %58 = load i32, ptr %57, align 4, !tbaa !24
  %59 = load ptr, ptr %12, align 8, !tbaa !11
  %60 = getelementptr inbounds nuw %struct.SwsPass, ptr %59, i32 0, i32 4
  %61 = load i32, ptr %60, align 8, !tbaa !21
  %62 = load i32, ptr %15, align 4, !tbaa !9
  %63 = sub nsw i32 %61, %62
  %64 = icmp sgt i32 %58, %63
  br i1 %64, label %65, label %71

65:                                               ; preds = %49
  %66 = load ptr, ptr %12, align 8, !tbaa !11
  %67 = getelementptr inbounds nuw %struct.SwsPass, ptr %66, i32 0, i32 4
  %68 = load i32, ptr %67, align 8, !tbaa !21
  %69 = load i32, ptr %15, align 4, !tbaa !9
  %70 = sub nsw i32 %68, %69
  br label %75

71:                                               ; preds = %49
  %72 = load ptr, ptr %12, align 8, !tbaa !11
  %73 = getelementptr inbounds nuw %struct.SwsPass, ptr %72, i32 0, i32 5
  %74 = load i32, ptr %73, align 4, !tbaa !24
  br label %75

75:                                               ; preds = %71, %65
  %76 = phi i32 [ %70, %65 ], [ %74, %71 ]
  store i32 %76, ptr %16, align 4, !tbaa !9
  %77 = load ptr, ptr %12, align 8, !tbaa !11
  %78 = getelementptr inbounds nuw %struct.SwsPass, ptr %77, i32 0, i32 1
  %79 = load ptr, ptr %78, align 8, !tbaa !17
  %80 = load ptr, ptr %14, align 8, !tbaa !59
  %81 = load ptr, ptr %13, align 8, !tbaa !59
  %82 = load i32, ptr %15, align 4, !tbaa !9
  %83 = load i32, ptr %16, align 4, !tbaa !9
  %84 = load ptr, ptr %12, align 8, !tbaa !11
  call void %79(ptr noundef %80, ptr noundef %81, i32 noundef %82, i32 noundef %83, ptr noundef %84)
  call void @llvm.lifetime.end.p0(i64 4, ptr %16) #11
  call void @llvm.lifetime.end.p0(i64 4, ptr %15) #11
  call void @llvm.lifetime.end.p0(i64 8, ptr %14) #11
  call void @llvm.lifetime.end.p0(i64 8, ptr %13) #11
  call void @llvm.lifetime.end.p0(i64 8, ptr %12) #11
  call void @llvm.lifetime.end.p0(i64 8, ptr %11) #11
  ret void
}