; Function Attrs: nounwind uwtable
define internal void @sws_graph_worker(ptr noundef %0, i32 noundef %1, i32 %2, i32 %3, i32 %4) #0 {
  %6 = getelementptr inbounds nuw i8, ptr %0, i64 416
  %7 = load ptr, ptr %6, align 8, !tbaa !72
  %8 = getelementptr inbounds nuw i8, ptr %7, i64 40
  %9 = load ptr, ptr %8, align 8, !tbaa !19
  %.not = icmp eq ptr %9, null
  %10 = getelementptr inbounds nuw i8, ptr %9, i64 48
  %11 = getelementptr inbounds nuw i8, ptr %0, i64 424
  %12 = select i1 %.not, ptr %11, ptr %10
  %13 = getelementptr inbounds nuw i8, ptr %7, i64 48
  %14 = load i32, ptr %13, align 8, !tbaa !20
  %15 = getelementptr inbounds nuw i8, ptr %7, i64 28
  %16 = load i32, ptr %15, align 4, !tbaa !22
  %17 = mul nsw i32 %16, %1
  %18 = getelementptr inbounds nuw i8, ptr %7, i64 24
  %19 = load i32, ptr %18, align 8, !tbaa !18
  %20 = sub nsw i32 %19, %17
  %21 = tail call i32 @llvm.smin.i32(i32 %16, i32 %20)
  %.not23 = icmp eq i32 %14, -1
  %22 = getelementptr inbounds nuw i8, ptr %0, i64 480
  %23 = select i1 %.not23, ptr %22, ptr %13
  %24 = getelementptr inbounds nuw i8, ptr %7, i64 8
  %25 = load ptr, ptr %24, align 8, !tbaa !14
  tail call void %25(ptr noundef nonnull %23, ptr noundef nonnull %12, i32 noundef %17, i32 noundef %21, ptr noundef %7) #12
  ret void
}